(dp0
Vstock
p1
(lp2
I1
a(lp3
I8
aasVall
p4
(lp5
I2
a(lp6
I2
aI3
aasVmonth
p7
(lp8
I2
a(lp9
I3
aI8
aasVgo
p10
(lp11
I1
a(lp12
I3
aasVhate
p13
(lp14
I1
a(lp15
I9
aasVsensit
p16
(lp17
I1
a(lp18
I3
aasVsend
p19
(lp20
I2
a(lp21
I3
aI8
aasVto
p22
(lp23
I9
a(lp24
I1
aI2
aI3
aI4
aI6
aI7
aI8
aI9
aI10
aasVbecam
p25
(lp26
I1
a(lp27
I8
aasVsoni
p28
(lp29
I1
a(lp30
I1
aasVinternet
p31
(lp32
I1
a(lp33
I10
aasVworst
p34
(lp35
I1
a(lp36
I1
aasVdisast
p37
(lp38
I1
a(lp39
I9
aasVfall
p40
(lp41
I1
a(lp42
I9
aasVveri
p43
(lp44
I2
a(lp45
I4
aI9
aasVbrows
p46
(lp47
I1
a(lp48
I4
aasVtri
p49
(lp50
I1
a(lp51
I9
aasVbutton
p52
(lp53
I1
a(lp54
I2
aasVemul
p55
(lp56
I1
a(lp57
I4
aasVsmall
p58
(lp59
I1
a(lp60
I2
aasVsluggi
p61
(lp62
I1
a(lp63
I9
aasVcost
p64
(lp65
I1
a(lp66
I8
aasVvideo
p67
(lp68
I1
a(lp69
I4
aasVport
p70
(lp71
I1
a(lp72
I3
aasVeven
p73
(lp74
I2
a(lp75
I1
aI8
aasVcursor
p76
(lp77
I1
a(lp78
I2
aasVwhat
p79
(lp80
I1
a(lp81
I4
aasVcompar
p82
(lp83
I2
a(lp84
I1
aI6
aasVtrivial
p85
(lp86
I1
a(lp87
I8
aasVabl
p88
(lp89
I1
a(lp90
I2
aasVdelet
p91
(lp92
I1
a(lp93
I7
aasVnew
p94
(lp95
I1
a(lp96
I8
aasVnet
p97
(lp98
I1
a(lp99
I4
aasV100
p100
(lp101
I1
a(lp102
I8
aasVgreat
p103
(lp104
I5
a(lp105
I1
aI2
aI3
aI6
aI10
aasVdevicewear
p106
(lp107
I1
a(lp108
I2
aasVamount
p109
(lp110
I1
a(lp111
I8
aasVelect
p112
(lp113
I1
a(lp114
I7
aasVprefer
p115
(lp116
I1
a(lp117
I2
aasVreleas
p118
(lp119
I1
a(lp120
I8
aasVstero
p121
(lp122
I1
a(lp123
I6
aasVunit
p124
(lp125
I1
a(lp126
I8
aasVuse
p127
(lp128
I7
a(lp129
I1
aI2
aI4
aI5
aI7
aI8
aI10
aasVfrom
p130
(lp131
I3
a(lp132
I1
aI4
aI6
aasVwould
p133
(lp134
I3
a(lp135
I3
aI5
aI8
aasVupgrad
p136
(lp137
I1
a(lp138
I6
aasVnexu
p139
(lp140
I3
a(lp141
I1
aI2
aI6
aasVnext
p142
(lp143
I1
a(lp144
I1
aasVfew
p145
(lp146
I2
a(lp147
I3
aI4
aasVcamera
p148
(lp149
I2
a(lp150
I2
aI6
aasVrecommend
p151
(lp152
I1
a(lp153
I5
aasVmore
p154
(lp155
I2
a(lp156
I1
aI8
aasVteen
p157
(lp158
I1
a(lp159
I5
aasVson
p160
(lp161
I1
a(lp162
I5
aasVhundr
p163
(lp164
I1
a(lp165
I8
aasVnotic
p166
(lp167
I1
a(lp168
I6
aasVit
p169
(lp170
I8
a(lp171
I2
aI3
aI4
aI5
aI6
aI8
aI9
aI10
aasVcompani
p172
(lp173
I1
a(lp174
I8
aasVhold
p175
(lp176
I1
a(lp177
I7
aasVme
p178
(lp179
I1
a(lp180
I2
aasVsometim
p181
(lp182
I1
a(lp183
I2
aasVwork
p184
(lp185
I3
a(lp186
I2
aI3
aI8
aasVcan
p187
(lp188
I2
a(lp189
I6
aI9
aasVmy
p190
(lp191
I5
a(lp192
I2
aI4
aI5
aI6
aI8
aasVcontrol
p193
(lp194
I1
a(lp195
I7
aasVclaim
p196
(lp197
I1
a(lp198
I8
aasVgive
p199
(lp200
I1
a(lp201
I9
aasVwant
p202
(lp203
I4
a(lp204
I2
aI7
aI8
aI10
aasVend
p205
(lp206
I2
a(lp207
I8
aI9
aasVflawless
p208
(lp209
I1
a(lp210
I1
aasVanoth
p211
(lp212
I1
a(lp213
I8
aasVwrite
p214
(lp215
I1
a(lp216
I8
aasVinstead
p217
(lp218
I3
a(lp219
I5
aI8
aI9
aasVwidespread
p220
(lp221
I1
a(lp222
I8
aasVupdat
p223
(lp224
I2
a(lp225
I1
aI8
aasV6mo
p226
(lp227
I1
a(lp228
I4
aasVproduct
p229
(lp230
I1
a(lp231
I8
aasVafter
p232
(lp233
I1
a(lp234
I6
aasVbefor
p235
(lp236
I1
a(lp237
I2
aasVbirthday
p238
(lp239
I1
a(lp240
I2
aasVcounter
p241
(lp242
I1
a(lp243
I1
aasVissu
p244
(lp245
I2
a(lp246
I3
aI8
aasVenviron
p247
(lp248
I1
a(lp249
I3
aasVallow
p250
(lp251
I1
a(lp252
I7
aasVmovi
p253
(lp254
I1
a(lp255
I4
aasVover
p256
(lp257
I2
a(lp258
I4
aI8
aasVmove
p259
(lp260
I1
a(lp261
I2
aasVbecaus
p262
(lp263
I1
a(lp264
I8
aasVstill
p265
(lp266
I1
a(lp267
I1
aasVmainli
p268
(lp269
I1
a(lp270
I10
aasVlg
p271
(lp272
I1
a(lp273
I1
aasVfix
p274
(lp275
I2
a(lp276
I3
aI8
aasV2015
p277
(lp278
I1
a(lp279
I1
aasV2013
p280
(lp281
I1
a(lp282
I1
aasVthen
p283
(lp284
I2
a(lp285
I3
aI8
aasVthem
p286
(lp287
I2
a(lp288
I7
aI8
aasVgood
p289
(lp290
I4
a(lp291
I2
aI4
aI5
aI8
aasVreturn
p292
(lp293
I1
a(lp294
I9
aasVoveral
p295
(lp296
I1
a(lp297
I6
aasVthey
p298
(lp299
I1
a(lp300
I8
aasVnot
p301
(lp302
I7
a(lp303
I2
aI3
aI4
aI6
aI7
aI8
aI9
aasVnow
p304
(lp305
I4
a(lp306
I1
aI2
aI4
aI8
aasVday
p307
(lp308
I1
a(lp309
I1
aasVthrill
p310
(lp311
I1
a(lp312
I6
aasVedit
p313
(lp314
I1
a(lp315
I4
aasVdrop
p316
(lp317
I1
a(lp318
I5
aasVl
p319
(lp320
I1
a(lp321
I6
aasVhero4
p322
(lp323
I1
a(lp324
I4
aasVrock
p325
(lp326
I1
a(lp327
I1
aasVwent
p328
(lp329
I1
a(lp330
I3
aasVconfid
p331
(lp332
I1
a(lp333
I8
aasVweight
p334
(lp335
I1
a(lp336
I2
aasVreplac
p337
(lp338
I1
a(lp339
I3
aasVhard
p340
(lp341
I1
a(lp342
I9
aasVrealli
p343
(lp344
I3
a(lp345
I2
aI6
aI8
aasVyear
p346
(lp347
I4
a(lp348
I1
aI2
aI4
aI8
aasVhappen
p349
(lp350
I1
a(lp351
I8
aasVspecial
p352
(lp353
I1
a(lp354
I6
aasVout
p355
(lp356
I1
a(lp357
I8
aasVarmor
p358
(lp359
I1
a(lp360
I2
aasVprofil
p361
(lp362
I1
a(lp363
I1
aasV7
p364
(lp365
I1
a(lp366
I6
aasVreader
p367
(lp368
I1
a(lp369
I10
aasVhardwar
p370
(lp371
I2
a(lp372
I1
aI9
aasVgot
p373
(lp374
I2
a(lp375
I3
aI8
aasVasu
p376
(lp377
I3
a(lp378
I1
aI3
aI8
aasVipod
p379
(lp380
I1
a(lp381
I2
aasVguess
p382
(lp383
I1
a(lp384
I6
aasVput
p385
(lp386
I2
a(lp387
I2
aI7
aasVcould
p388
(lp389
I1
a(lp390
I10
aasVask
p391
(lp392
I1
a(lp393
I9
aasVthing
p394
(lp395
I4
a(lp396
I1
aI6
aI7
aI8
aasVamerican
p397
(lp398
I1
a(lp399
I8
aasVunabl
p400
(lp401
I1
a(lp402
I7
aasViphon
p403
(lp404
I1
a(lp405
I2
aasVonto
p406
(lp407
I1
a(lp408
I4
aasVfirst
p409
(lp410
I2
a(lp411
I3
aI8
aasVoper
p412
(lp413
I1
a(lp414
I2
aasVsoftwar
p415
(lp416
I1
a(lp417
I1
aasVfeel
p418
(lp419
I1
a(lp420
I6
aasVwast
p421
(lp422
I1
a(lp423
I8
aasVone
p424
(lp425
I3
a(lp426
I1
aI6
aI8
aasVunlik
p427
(lp428
I1
a(lp429
I6
aasVsuspens
p430
(lp431
I1
a(lp432
I7
aasVfast
p433
(lp434
I2
a(lp435
I2
aI6
aasVwasn
p436
(lp437
I1
a(lp438
I2
aasVcustom
p439
(lp440
I1
a(lp441
I8
aasVsize
p442
(lp443
I1
a(lp444
I2
aasVdiffer
p445
(lp446
I1
a(lp447
I6
aasVsystem
p448
(lp449
I2
a(lp450
I1
aI2
aasVleast
p451
(lp452
I1
a(lp453
I7
aasVtheir
p454
(lp455
I2
a(lp456
I1
aI8
aasV2
p457
(lp458
I1
a(lp459
I8
aasVtoo
p460
(lp461
I5
a(lp462
I1
aI2
aI7
aI8
aI9
aasVconveni
p463
(lp464
I1
a(lp465
I4
aasVfinal
p466
(lp467
I1
a(lp468
I4
aasVgear
p469
(lp470
I1
a(lp471
I1
aasVthat
p472
(lp473
I6
a(lp474
I1
aI2
aI3
aI6
aI8
aI9
aasVpart
p475
(lp476
I1
a(lp477
I8
aasVthan
p478
(lp479
I2
a(lp480
I2
aI8
aasVipad
p481
(lp482
I1
a(lp483
I2
aasVebay
p484
(lp485
I1
a(lp486
I8
aasVwere
p487
(lp488
I1
a(lp489
I3
aasVresult
p490
(lp491
I1
a(lp492
I8
aasVpre
p493
(lp494
I1
a(lp495
I5
aasVmodern
p496
(lp497
I1
a(lp498
I1
aasVdefect
p499
(lp500
I1
a(lp501
I8
aasVbuy
p502
(lp503
I1
a(lp504
I8
aasVhave
p505
(lp506
I5
a(lp507
I2
aI3
aI6
aI8
aI10
aasVseem
p508
(lp509
I1
a(lp510
I3
aasVoption
p511
(lp512
I1
a(lp513
I1
aasValso
p514
(lp515
I1
a(lp516
I3
aasVwhich
p517
(lp518
I1
a(lp519
I8
aasVso
p520
(lp521
I3
a(lp522
I1
aI2
aI9
aasVpicki
p523
(lp524
I1
a(lp525
I9
aasV200
p526
(lp527
I1
a(lp528
I8
aasVsure
p529
(lp530
I1
a(lp531
I2
aasVprice
p532
(lp533
I2
a(lp534
I1
aI2
aasVebook
p535
(lp536
I1
a(lp537
I2
aasVreact
p538
(lp539
I1
a(lp540
I6
aasVmost
p541
(lp542
I1
a(lp543
I1
aasVeveryth
p544
(lp545
I1
a(lp546
I10
aasVcharg
p547
(lp548
I1
a(lp549
I3
aasVlater
p550
(lp551
I1
a(lp552
I8
aasVm
p553
(lp554
I4
a(lp555
I4
aI6
aI8
aI9
aasVdoe
p556
(lp557
I2
a(lp558
I1
aI10
aasVtech
p559
(lp560
I1
a(lp561
I2
aasVawesom
p562
(lp563
I1
a(lp564
I1
aasVshop
p565
(lp566
I1
a(lp567
I4
aasVridicul
p568
(lp569
I1
a(lp570
I1
aasVfine
p571
(lp572
I1
a(lp573
I2
aasVonli
p574
(lp575
I3
a(lp576
I1
aI2
aI6
aasVslow
p577
(lp578
I1
a(lp579
I9
aasVdice
p580
(lp581
I1
a(lp582
I8
aasVshould
p583
(lp584
I1
a(lp585
I7
aasVdo
p586
(lp587
I4
a(lp588
I1
aI7
aI8
aI9
aasVget
p589
(lp590
I5
a(lp591
I2
aI3
aI4
aI8
aI9
aasVexpress
p592
(lp593
I1
a(lp594
I8
aasVwatch
p595
(lp596
I1
a(lp597
I4
aasVsoon
p598
(lp599
I1
a(lp600
I9
aasVlighter
p601
(lp602
I1
a(lp603
I6
aasVrestart
p604
(lp605
I1
a(lp606
I2
aasVtopnotch
p607
(lp608
I1
a(lp609
I1
aasVbad
p610
(lp611
I1
a(lp612
I3
aasVcommon
p613
(lp614
I1
a(lp615
I8
aasVwhere
p616
(lp617
I1
a(lp618
I2
aasVhusband
p619
(lp620
I1
a(lp621
I2
aasVsee
p622
(lp623
I1
a(lp624
I8
aasVare
p625
(lp626
I2
a(lp627
I6
aI8
aasVrespons
p628
(lp629
I2
a(lp630
I5
aI6
aasVfail
p631
(lp632
I1
a(lp633
I8
aasVwhatsoev
p634
(lp635
I1
a(lp636
I4
aasVreview
p637
(lp638
I1
a(lp639
I8
aasVrealiz
p640
(lp641
I1
a(lp642
I9
aasVwon
p643
(lp644
I3
a(lp645
I2
aI3
aI8
aasVbought
p646
(lp647
I3
a(lp648
I4
aI5
aI8
aasVwe
p649
(lp650
I1
a(lp651
I1
aasVappreci
p652
(lp653
I1
a(lp654
I6
aasVwa
p655
(lp656
I4
a(lp657
I1
aI2
aI3
aI8
aasVscreen
p658
(lp659
I5
a(lp660
I1
aI2
aI3
aI6
aI8
aasVaddit
p661
(lp662
I1
a(lp663
I6
aasVprotect
p664
(lp665
I1
a(lp666
I2
aasVetc
p667
(lp668
I1
a(lp669
I5
aasVs
p670
(lp671
I4
a(lp672
I3
aI4
aI5
aI10
aasVprotector
p673
(lp674
I1
a(lp675
I2
aasVtough
p676
(lp677
I1
a(lp678
I5
aasVpoint
p679
(lp680
I1
a(lp681
I9
aasVbatteri
p682
(lp683
I1
a(lp684
I5
aasVquit
p685
(lp686
I2
a(lp687
I5
aI6
aasVdevic
p688
(lp689
I3
a(lp690
I2
aI5
aI10
aasVbeen
p691
(lp692
I2
a(lp693
I4
aI8
aasVpc
p694
(lp695
I1
a(lp696
I4
aasVgopro
p697
(lp698
I1
a(lp699
I4
aasVmuch
p700
(lp701
I3
a(lp702
I2
aI8
aI9
aasVbrick
p703
(lp704
I1
a(lp705
I8
aasVimmedi
p706
(lp707
I1
a(lp708
I2
aasVlife
p709
(lp710
I1
a(lp711
I5
aasVchild
p712
(lp713
I1
a(lp714
I9
aasVpresent
p715
(lp716
I1
a(lp717
I9
aasVcrappi
p718
(lp719
I1
a(lp720
I9
aasVcase
p721
(lp722
I1
a(lp723
I2
aasVugli
p724
(lp725
I1
a(lp726
I9
aasVmyself
p727
(lp728
I1
a(lp729
I9
aasVvimeo
p730
(lp731
I1
a(lp732
I4
aasVair
p733
(lp734
I1
a(lp735
I8
aasVwill
p736
(lp737
I1
a(lp738
I8
aasVpurchas
p739
(lp740
I1
a(lp741
I6
aasVve
p742
(lp743
I2
a(lp744
I4
aI8
aasVconvinc
p745
(lp746
I1
a(lp747
I9
aasVshame
p748
(lp749
I1
a(lp750
I8
aasVin
p751
(lp752
I3
a(lp753
I3
aI8
aI9
aasVrevis
p754
(lp755
I1
a(lp756
I8
aasVdedic
p757
(lp758
I1
a(lp759
I4
aasVsever
p760
(lp761
I1
a(lp762
I5
aasVif
p763
(lp764
I4
a(lp765
I1
aI2
aI3
aI8
aasVsame
p766
(lp767
I1
a(lp768
I10
aasVspeaker
p769
(lp770
I1
a(lp771
I6
aasVandroid
p772
(lp773
I2
a(lp774
I2
aI6
aasVcomplet
p775
(lp776
I1
a(lp777
I8
aasVweek
p778
(lp779
I1
a(lp780
I9
aasVlower
p781
(lp782
I1
a(lp783
I1
aasVoff
p784
(lp785
I2
a(lp786
I4
aI8
aasVolder
p787
(lp788
I1
a(lp789
I6
aasVi
p790
(lp791
I7
a(lp792
I2
aI3
aI4
aI6
aI8
aI9
aI10
aasV720p
p793
(lp794
I1
a(lp795
I4
aasVwell
p796
(lp797
I1
a(lp798
I2
aasVjustifi
p799
(lp800
I1
a(lp801
I9
aasVthought
p802
(lp803
I1
a(lp804
I9
aasV1
p805
(lp806
I1
a(lp807
I1
aasVexpens
p808
(lp809
I1
a(lp810
I8
aasVthi
p811
(lp812
I9
a(lp813
I1
aI2
aI3
aI4
aI5
aI6
aI8
aI9
aI10
aasVmodel
p814
(lp815
I1
a(lp816
I6
aasVjust
p817
(lp818
I2
a(lp819
I4
aI8
aasVless
p820
(lp821
I1
a(lp822
I8
aasVmoney
p823
(lp824
I2
a(lp825
I5
aI8
aasVlaptop
p826
(lp827
I1
a(lp828
I5
aasVtouch
p829
(lp830
I4
a(lp831
I2
aI3
aI6
aI8
aasVlove
p832
(lp833
I2
a(lp834
I2
aI8
aasVweb
p835
(lp836
I1
a(lp837
I4
aasVtablet
p838
(lp839
I6
a(lp840
I2
aI3
aI4
aI6
aI9
aI10
aasVhad
p841
(lp842
I4
a(lp843
I3
aI4
aI8
aI9
aasVlittl
p844
(lp845
I1
a(lp846
I4
aasVsave
p847
(lp848
I1
a(lp849
I5
aasVread
p850
(lp851
I1
a(lp852
I2
aasVbig
p853
(lp854
I2
a(lp855
I2
aI4
aasVpiec
p856
(lp857
I2
a(lp858
I8
aI9
aasVgame
p859
(lp860
I2
a(lp861
I4
aI10
aasVtemperatur
p862
(lp863
I1
a(lp864
I3
aasVfive
p865
(lp866
I1
a(lp867
I3
aasVknow
p868
(lp869
I2
a(lp870
I1
aI4
aasVrear
p871
(lp872
I1
a(lp873
I6
aasVd
p874
(lp875
I1
a(lp876
I2
aasVloss
p877
(lp878
I1
a(lp879
I8
aasVlike
p880
(lp881
I3
a(lp882
I1
aI2
aI8
aasVcooler
p883
(lp884
I1
a(lp885
I3
aasVt
p886
(lp887
I3
a(lp888
I2
aI3
aI8
aasVright
p889
(lp890
I1
a(lp891
I8
aasVdeal
p892
(lp893
I1
a(lp894
I8
aasVacknowledg
p895
(lp896
I1
a(lp897
I8
aasVsome
p898
(lp899
I2
a(lp900
I1
aI8
aasVback
p901
(lp902
I2
a(lp903
I1
aI2
aasVwarmer
p904
(lp905
I1
a(lp906
I3
aasVsurpris
p907
(lp908
I2
a(lp909
I2
aI4
aasVkinemast
p910
(lp911
I1
a(lp912
I4
aasVfor
p913
(lp914
I5
a(lp915
I2
aI3
aI4
aI8
aI9
aasVeasili
p916
(lp917
I1
a(lp918
I6
aasVavoid
p919
(lp920
I1
a(lp921
I8
aasVestim
p922
(lp923
I1
a(lp924
I8
aasVmachin
p925
(lp926
I1
a(lp927
I4
aasVbe
p928
(lp929
I2
a(lp930
I2
aI3
aasVplu
p931
(lp932
I1
a(lp933
I1
aasVpower
p934
(lp935
I1
a(lp936
I1
aasVgarbag
p937
(lp938
I1
a(lp939
I9
aasVjumpi
p940
(lp941
I1
a(lp942
I8
aasValthough
p943
(lp944
I1
a(lp945
I8
aasVsuper
p946
(lp947
I1
a(lp948
I9
aasVby
p949
(lp950
I2
a(lp951
I8
aI9
aasVabout
p952
(lp953
I2
a(lp954
I2
aI6
aasVactual
p955
(lp956
I1
a(lp957
I3
aasVos
p958
(lp959
I1
a(lp960
I1
aasVor
p961
(lp962
I4
a(lp963
I1
aI2
aI4
aI7
aasVunrespons
p964
(lp965
I1
a(lp966
I8
aasVrepair
p967
(lp968
I2
a(lp969
I3
aI8
aasVown
p970
(lp971
I1
a(lp972
I1
aasVautomat
p973
(lp974
I1
a(lp975
I8
aasVtwo
p976
(lp977
I1
a(lp978
I9
aasVwarranti
p979
(lp980
I1
a(lp981
I8
aasVstorag
p982
(lp983
I1
a(lp984
I2
aasVfrustrat
p985
(lp986
I1
a(lp987
I9
aasVsubmit
p988
(lp989
I1
a(lp990
I8
aasVhappi
p991
(lp992
I2
a(lp993
I4
aI6
aasVstart
p994
(lp995
I2
a(lp996
I3
aI4
aasVslimport
p997
(lp998
I1
a(lp999
I1
aasVlot
p1000
(lp1001
I2
a(lp1002
I2
aI5
aasVamazingli
p1003
(lp1004
I1
a(lp1005
I8
aasVfunction
p1006
(lp1007
I1
a(lp1008
I3
aasVproperli
p1009
(lp1010
I1
a(lp1011
I3
aasVbut
p1012
(lp1013
I6
a(lp1014
I1
aI2
aI3
aI4
aI9
aI10
aasVhi
p1015
(lp1016
I1
a(lp1017
I5
aasVeas
p1018
(lp1019
I1
a(lp1020
I4
aasVha
p1021
(lp1022
I2
a(lp1023
I1
aI5
aasVwith
p1024
(lp1025
I7
a(lp1026
I1
aI2
aI3
aI4
aI5
aI6
aI8
aasVhe
p1027
(lp1028
I1
a(lp1029
I5
aasVcount
p1030
(lp1031
I1
a(lp1032
I4
aasVthrow
p1033
(lp1034
I1
a(lp1035
I9
aasVup
p1036
(lp1037
I2
a(lp1038
I8
aI9
aasVproblem
p1039
(lp1040
I3
a(lp1041
I3
aI4
aI8
aasVad
p1042
(lp1043
I1
a(lp1044
I8
aasVam
p1045
(lp1046
I1
a(lp1047
I4
aasVflaw
p1048
(lp1049
I1
a(lp1050
I9
aasVan
p1051
(lp1052
I3
a(lp1053
I2
aI8
aI10
aasVas
p1054
(lp1055
I4
a(lp1056
I4
aI8
aI9
aI10
aasVaw
p1057
(lp1058
I1
a(lp1059
I1
aasVagain
p1060
(lp1061
I3
a(lp1062
I2
aI3
aI8
aasVgoogl
p1063
(lp1064
I3
a(lp1065
I1
aI7
aI8
aasVno
p1066
(lp1067
I1
a(lp1068
I9
aasVwhen
p1069
(lp1070
I3
a(lp1071
I1
aI3
aI8
aasVbook
p1072
(lp1073
I1
a(lp1074
I4
aasV5
p1075
(lp1076
I1
a(lp1077
I1
aasVyou
p1078
(lp1079
I3
a(lp1080
I6
aI7
aI8
aasVroll
p1081
(lp1082
I1
a(lp1083
I8
aasVnice
p1084
(lp1085
I1
a(lp1086
I10
aasVjunk
p1087
(lp1088
I1
a(lp1089
I8
aasVstar
p1090
(lp1091
I2
a(lp1092
I1
aI3
aasVvein
p1093
(lp1094
I1
a(lp1095
I9
aasVdeserv
p1096
(lp1097
I1
a(lp1098
I9
aasVago
p1099
(lp1100
I1
a(lp1101
I2
aasVexperienc
p1102
(lp1103
I1
a(lp1104
I8
aasVe
p1105
(lp1106
I1
a(lp1107
I10
aasVtime
p1108
(lp1109
I2
a(lp1110
I5
aI8
aasVpush
p1111
(lp1112
I1
a(lp1113
I8
aas.